target datalayout = "e-m:e-p270:32:32-p271:32:32-p272:64:64-i64:64-i128:128-f80:128-n8:16:32:64-S128"
target triple = "x86_64-pc-linux-gnu"

%struct.bitstream = type { i64, i64, ptr, ptr, ptr }

; Function Attrs: nounwind uwtable
define internal void @stream_write_word(ptr noundef %0, i64 noundef %1) #0 {
  %3 = alloca ptr, align 8
  %4 = alloca i64, align 8
  store ptr %0, ptr %3, align 8
  store i64 %1, ptr %4, align 8
  %5 = load i64, ptr %4, align 8
  %6 = load ptr, ptr %3, align 8
  %7 = getelementptr inbounds %struct.bitstream, ptr %6, i32 0, i32 2
  %8 = load ptr, ptr %7, align 8
  %9 = getelementptr inbounds i64, ptr %8, i32 1
  store ptr %9, ptr %7, align 8
  store i64 %5, ptr %8, align 8
  ret void
}

; Function Attrs: nounwind uwtable
define void @stream_pad(ptr noundef %0, i64 noundef %1) #0 {
  %3 = alloca ptr, align 8
  %4 = alloca i64, align 8
  %5 = alloca i64, align 8
  store ptr %0, ptr %3, align 8
  store i64 %1, ptr %4, align 8
  %6 = load ptr, ptr %3, align 8
  %7 = getelementptr inbounds %struct.bitstream, ptr %6, i32 0, i32 0
  %8 = load i64, ptr %7, align 8
  store i64 %8, ptr %5, align 8
  %9 = load i64, ptr %4, align 8
  %10 = load i64, ptr %5, align 8
  %11 = add i64 %10, %9
  store i64 %11, ptr %5, align 8
  br label %12

12:                                               ; preds = %22, %2
  %13 = load i64, ptr %5, align 8
  %14 = icmp uge i64 %13, 64
  br i1 %14, label %15, label %25

15:                                               ; preds = %12
  %16 = load ptr, ptr %3, align 8
  %17 = load ptr, ptr %3, align 8
  %18 = getelementptr inbounds %struct.bitstream, ptr %17, i32 0, i32 1
  %19 = load i64, ptr %18, align 8
  call void @stream_write_word(ptr noundef %16, i64 noundef %19)
  %20 = load ptr, ptr %3, align 8
  %21 = getelementptr inbounds %struct.bitstream, ptr %20, i32 0, i32 1
  store i64 0, ptr %21, align 8
  br label %22

22:                                               ; preds = %15
  %23 = load i64, ptr %5, align 8
  %24 = sub i64 %23, 64
  store i64 %24, ptr %5, align 8
  br label %12

25:                                               ; preds = %12
  %26 = load i64, ptr %5, align 8
  %27 = load ptr, ptr %3, align 8
  %28 = getelementptr inbounds %struct.bitstream, ptr %27, i32 0, i32 0
  store i64 %26, ptr %28, align 8
  ret void
}

; Function Attrs: nounwind uwtable
define i64 @stream_flush(ptr noundef %0) #0 {
  %2 = alloca ptr, align 8
  %3 = alloca i64, align 8
  store ptr %0, ptr %2, align 8
  %4 = load ptr, ptr %2, align 8
  %5 = getelementptr inbounds %struct.bitstream, ptr %4, i32 0, i32 0
  %6 = load i64, ptr %5, align 8
  %7 = sub i64 64, %6
  %8 = urem i64 %7, 64
  store i64 %8, ptr %3, align 8
  %9 = load i64, ptr %3, align 8
  %10 = icmp ne i64 %9, 0
  br i1 %10, label %11, label %14

11:                                               ; preds = %1
  %12 = load ptr, ptr %2, align 8
  %13 = load i64, ptr %3, align 8
  call void @stream_pad(ptr noundef %12, i64 noundef %13)
  br label %14

14:                                               ; preds = %11, %1
  %15 = load i64, ptr %3, align 8
  ret i64 %15
}