; Function Attrs: nofree norecurse nosync nounwind memory(write, argmem: readwrite, inaccessiblemem: none) uwtable
define range(i64 0, 64) i64 @stream_flush(ptr noundef captures(none) %0) local_unnamed_addr #5 {
  %2 = load i64, ptr %0, align 8
  %3 = sub i64 0, %2
  %4 = and i64 %3, 63
  %.not = icmp eq i64 %4, 0
  br i1 %.not, label %16, label %5

5:                                                ; preds = %1
  %6 = add i64 %4, %2
  %7 = icmp ugt i64 %6, 63
  br i1 %7, label %.lr.ph.i, label %stream_pad.exit

.lr.ph.i:                                         ; preds = %5
  %8 = getelementptr inbounds nuw i8, ptr %0, i64 8
  %9 = getelementptr inbounds nuw i8, ptr %0, i64 16
  %.pre.i = load i64, ptr %8, align 8
  br label %10

10:                                               ; preds = %10, %.lr.ph.i
  %11 = phi i64 [ %.pre.i, %.lr.ph.i ], [ 0, %10 ]
  %.09.i = phi i64 [ %6, %.lr.ph.i ], [ %14, %10 ]
  %12 = load ptr, ptr %9, align 8
  %13 = getelementptr inbounds nuw i8, ptr %12, i64 8
  store ptr %13, ptr %9, align 8
  store i64 %11, ptr %12, align 8
  store i64 0, ptr %8, align 8
  %14 = add i64 %.09.i, -64
  %15 = icmp ugt i64 %14, 63
  br i1 %15, label %10, label %stream_pad.exit

stream_pad.exit:                                  ; preds = %10, %5
  %.0.lcssa.i = phi i64 [ %6, %5 ], [ %14, %10 ]
  store i64 %.0.lcssa.i, ptr %0, align 8
  br label %16

16:                                               ; preds = %stream_pad.exit, %1
  ret i64 %4
}